; Function Attrs: mustprogress nofree norecurse nosync nounwind willreturn memory(read, inaccessiblemem: none) uwtable
define noundef ptr @_ZN8facebook5velox16ByteOutputStream13writePositionEv(ptr nocapture noundef nonnull readonly align 8 dereferenceable(60) %this) local_unnamed_addr #5 align 2 {
entry:
  %ranges_ = getelementptr inbounds i8, ptr %this, i64 16
  %0 = load ptr, ptr %ranges_, align 8
  %_M_finish.i.i = getelementptr inbounds i8, ptr %this, i64 24
  %1 = load ptr, ptr %_M_finish.i.i, align 8
  %cmp.i.i = icmp eq ptr %0, %1
  br i1 %cmp.i.i, label %return, label %if.end

if.end:                                           ; preds = %entry
  %current_ = getelementptr inbounds i8, ptr %this, i64 48
  %2 = load ptr, ptr %current_, align 8
  %3 = load ptr, ptr %2, align 8
  %position = getelementptr inbounds i8, ptr %2, i64 12
  %4 = load i32, ptr %position, align 4
  %idx.ext = sext i32 %4 to i64
  %add.ptr = getelementptr inbounds i8, ptr %3, i64 %idx.ext
  br label %return

return:                                           ; preds = %entry, %if.end
  %retval.0 = phi ptr [ %add.ptr, %if.end ], [ null, %entry ]
  ret ptr %retval.0
}